; Function Attrs: nounwind uwtable
define hidden zeroext i1 @SDL_SensorsOpened() local_unnamed_addr #1 {
  %1 = tail call i32 @SDL_AddAtomicInt_REAL(ptr noundef nonnull @SDL_sensor_lock_pending, i32 noundef 1) #9
  %2 = load ptr, ptr @SDL_sensor_lock, align 8
  tail call void @SDL_LockMutex_REAL(ptr noundef %2) #9
  %3 = tail call i32 @SDL_AddAtomicInt_REAL(ptr noundef nonnull @SDL_sensor_lock_pending, i32 noundef -1) #9
  %4 = load i32, ptr @SDL_sensors_locked, align 4
  %5 = load ptr, ptr @SDL_sensors, align 8
  %.b4.i = load i1, ptr @SDL_sensors_initialized, align 1
  %6 = icmp ne i32 %4, 0
  %or.cond.i = select i1 %.b4.i, i1 true, i1 %6
  br i1 %or.cond.i, label %.critedge.i, label %7

7:                                                ; preds = %0
  %8 = tail call i32 @SDL_GetAtomicInt_REAL(ptr noundef nonnull @SDL_sensor_lock_pending) #9
  %9 = icmp eq i32 %8, 0
  br i1 %9, label %10, label %.critedge.i

10:                                               ; preds = %7
  %11 = load ptr, ptr @SDL_sensor_lock, align 8
  tail call void @SDL_LockMutex_REAL(ptr noundef %11) #9
  %12 = load ptr, ptr @SDL_sensor_lock, align 8
  tail call void @SDL_UnlockMutex_REAL(ptr noundef %12) #9
  store ptr null, ptr @SDL_sensor_lock, align 8
  tail call void @SDL_UnlockMutex_REAL(ptr noundef %11) #9
  tail call void @SDL_DestroyMutex_REAL(ptr noundef %11) #9
  br label %SDL_UnlockSensors.exit

.critedge.i:                                      ; preds = %7, %0
  %13 = load ptr, ptr @SDL_sensor_lock, align 8
  tail call void @SDL_UnlockMutex_REAL(ptr noundef %13) #9
  br label %SDL_UnlockSensors.exit

SDL_UnlockSensors.exit:                           ; preds = %10, %.critedge.i
  %.not = icmp ne ptr %5, null
  ret i1 %.not
}